(dp0
ccopy_reg
_reconstructor
p1
(cuuid
UUID
p2
c__builtin__
object
p3
Ntp4
Rp5
(dp6
S'int'
p7
L135956337301886209225867281390622408376L
sbg1
(ccard
card
p8
g3
Ntp9
Rp10
(dp11
S'repeat'
p12
I0
sS'description'
p13
S'this is a base-line reward, exploring new places (cities, countries) or environemnt (companies, social circles) give me huge reward in term of intellectual stimulation and sense of satisfaction. The rewards come specifically for the ramifications that come from this new enivronment, in terms of new ideas and new perspectives'
p14
sS'is_reward'
p15
I1
sS'name'
p16
S'EXPLORE NEW ENVIRONMENTS'
p17
sS'priority'
p18
I5
sS'parents'
p19
(lp20
g1
(g2
g3
Ntp21
Rp22
(dp23
g7
L57886973781593135096754432621914394792L
sbag1
(g2
g3
Ntp24
Rp25
(dp26
g7
L203230877756442085834442276416923312791L
sbag1
(g2
g3
Ntp27
Rp28
(dp29
g7
L175442547884908195279498717771617577306L
sbag1
(g2
g3
Ntp30
Rp31
(dp32
g7
L101519343050268806658576890078105654507L
sbag1
(g2
g3
Ntp33
Rp34
(dp35
g7
L182367817165611756657772329936085917737L
sbag1
(g2
g3
Ntp36
Rp37
(dp38
g7
L126553859162239972942902663314680107026L
sbasS'is_optional'
p39
I1
sS'done'
p40
I0
sS'children'
p41
(lp42
sS'uuid'
p43
g5
sbsg1
(g2
g3
Ntp44
Rp45
(dp46
g7
L241271088500270224812930358060696713018L
sbg1
(g8
g3
Ntp47
Rp48
(dp49
g12
I0
sg13
S'Grif ok, check on manish and write to tsinghua professor'
p50
sg15
I1
sg16
S'CONFIRM RECCOMANDATION LETTERS'
p51
sg18
I10
sg19
(lp52
sg39
I0
sg40
I01
sg41
(lp53
g1
(g2
g3
Ntp54
Rp55
(dp56
g7
L187530011130269357233490196666322418304L
sbasg43
g45
sbsg1
(g2
g3
Ntp57
Rp58
(dp59
g7
L59166146108013186118315419483977723761L
sbg1
(g8
g3
Ntp60
Rp61
(dp62
g12
I0
sg13
S'get degree in Computer Science Engineering, proud for my mother, father, grandpa and grandma.'
p63
sg15
I0
sg16
S'GRADUATE FROM POLIMI'
p64
sg18
I-1
sg19
(lp65
g1
(g2
g3
Ntp66
Rp67
(dp68
g7
L276402776187812617887177218065978553847L
sbag1
(g2
g3
Ntp69
Rp70
(dp71
g7
L4185142637032421298673067599655902077L
sbasg39
I0
sg40
I0
sg41
(lp72
g55
asg43
g58
sbsg25
g1
(g8
g3
Ntp73
Rp74
(dp75
g12
I0
sg43
g25
sg15
I1
sg16
S'JOIN GOOGLE'
p76
sg18
I10
sg19
(lp77
g1
(g2
g3
Ntp78
Rp79
(dp80
g7
L4199992594057064522365773322663535910L
sbasg39
I0
sg40
I0
sg41
(lp81
g5
ag1
(g2
g3
Ntp82
Rp83
(dp84
g7
L156903102609963632139018816510307699211L
sbag1
(g2
g3
Ntp85
Rp86
(dp87
g7
L262596478194649904885703367792936764487L
sbasg13
S'accept a full-time offer in SRE'
p88
sbsg79
g1
(g8
g3
Ntp89
Rp90
(dp91
g12
I0
sg13
S'-'
p92
sg15
I0
sg16
S'RECEIVE OFFER FROM GOOGLE'
p93
sg19
(lp94
g1
(g2
g3
Ntp95
Rp96
(dp97
g7
L48032117970232565449022731284732968808L
sbasg39
I0
sg40
I0
sg41
(lp98
g25
asg43
g79
sbsg1
(g2
g3
Ntp99
Rp100
(dp101
g7
L88799401571354451238098398814728998957L
sbg1
(g8
g3
Ntp102
Rp103
(dp104
g12
I0
sg13
S'check exam times and if the exam changed from last year, then arrange timetable'
p105
sg15
I0
sg16
S'MAKE STUDY PLAN FOR RETI LOGICHE'
p106
sg18
I-1
sg19
(lp107
sg39
I0
sg40
I01
sg41
(lp108
g70
asg43
g100
sbsg70
g1
(g8
g3
Ntp109
Rp110
(dp111
g12
I0
sg43
g70
sg15
I0
sg16
S'TAKE RETI LOGICHE EXAM'
p112
sg18
I-1
sg19
(lp113
g100
ag1
(g2
g3
Ntp114
Rp115
(dp116
g7
L296386194950395531367171217762339475685L
sbasg39
I0
sg40
I0
sg41
(lp117
g58
asg13
S'be prepraed and take exam in milano'
p118
sbsg28
g1
(g8
g3
Ntp119
Rp120
(dp121
g12
I0
sg13
S"the place is 'calling' me, and is also one of my last chances to explore china. The nature looks great and is a tier3 city to explore."
p122
sg15
I1
sg16
S'GO TO TAIZHOU, ZHEJIANG'
p123
sg18
I3
sg19
(lp124
g1
(g2
g3
Ntp125
Rp126
(dp127
g7
L12049413960759779483709760578831190527L
sbasg39
I1
sg40
I0
sg41
(lp128
g5
ag1
(g2
g3
Ntp129
Rp130
(dp131
g7
L211949435772328494524885413875356688937L
sbasg43
g28
sbsg1
(g2
g3
Ntp132
Rp133
(dp134
g7
L79878906858571363930143997825199950891L
sbg1
(g8
g3
Ntp135
Rp136
(dp137
g12
I0
sg43
g133
sg15
I0
sg16
S'[EVERY TWO DAYS] LOW INTENSITY PHASE for 2SIGMA KAGGLE COMPETITION'
p138
sg18
I-1
sg19
(lp139
g1
(g2
g3
Ntp140
Rp141
(dp142
g7
L278270568803289300776940372767844253577L
sbag1
(g2
g3
Ntp143
Rp144
(dp145
g7
L189749861378581683028450498320446888321L
sbasg39
I1
sg40
I0
sg41
(lp146
g1
(g2
g3
Ntp147
Rp148
(dp149
g7
L196804562485392156316990297405429911959L
sbasg13
S'before finishing google, this consist either in reading how to prepare/organize machine learning proj and mainly read existing kernels and discussion on kaggle for the competition, copying by hand or copying code on gihub'
p150
sbsg126
g1
(g8
g3
Ntp151
Rp152
(dp153
g12
I0
sg43
g126
sg15
I0
sg16
S'ARRANGE TAIZHOU TRIP'
p154
sg18
I-1
sg19
(lp155
sg39
I1
sg40
I0
sg41
(lp156
g28
asg13
S'think about when to go, where to stay, what to do, what to bring'
p157
sbsg1
(g2
g3
Ntp158
Rp159
(dp160
g7
L106111104291857946122560359073078994932L
sbg1
(g8
g3
Ntp161
Rp162
(dp163
g12
I0
sg13
S'Microsoft, Facebook, Amazon, this is to conduct mock interviews parallel to the one on leet code'
p164
sg15
I0
sg16
S'APPLY FOR ALTERNATIVE COMPANIES TO GOOGLE'
p165
sg18
I-1
sg19
(lp166
sg39
I0
sg40
I01
sg41
(lp167
g1
(g2
g3
Ntp168
Rp169
(dp170
g7
L45712991109779215364839665557360406809L
sbasg43
g159
sbsg1
(g2
g3
Ntp171
Rp172
(dp173
g7
L164280901268750211986891552020063054116L
sbg1
(g8
g3
Ntp174
Rp175
(dp176
g12
I0
sg13
S'this shit is happening right next from here!! and they are so active'
p177
sg15
I0
sg16
S'WAIT FOR RESPONSE FROM VNPY GUY, FOLLOW QQ GROUP AND START CONTACTNG PEOPLE'
p178
sg18
I-1
sg19
(lp179
sg39
I1
sg40
I0
sg41
(lp180
g1
(g2
g3
Ntp181
Rp182
(dp183
g7
L168085244053836060062503163136967916207L
sbasg43
g172
sbsg1
(g2
g3
Ntp184
Rp185
(dp186
g7
L76833444618773621320079898139527237475L
sbg1
(g8
g3
Ntp187
Rp188
(dp189
g12
I0
sg43
g185
sg15
I0
sg16
S'DO RESEARCH ON THE BEST TECHNOLOGIES TO USE TO IMPLEMENT CONGRAPH'
p190
sg18
I-1
sg19
(lp191
sg39
I0
sg40
I0
sg41
(lp192
g1
(g2
g3
Ntp193
Rp194
(dp195
g7
L35146434190189116992103296675596674137L
sbasg13
S'usecases: boost creativity, create "ideas" "concepts" "situation", connect and cluster them. Should have APIs to add automatically via voice. Self develop or use something like baidu naotu?'
p196
sbsg1
(g2
g3
Ntp197
Rp198
(dp199
g7
L65070187715447435898422797979494937776L
sbg1
(g8
g3
Ntp200
Rp201
(dp202
g12
I0
sg13
S'the guy work in a hedgefund in singapore, definitely worth checking out'
p203
sg15
I0
sg16
S'MEET JINGKE IN SINGAPORE'
p204
sg18
I-1
sg19
(lp205
g37
asg39
I1
sg40
I0
sg41
(lp206
g83
asg43
g198
sbsg144
g1
(g8
g3
Ntp207
Rp208
(dp209
g12
I0
sg43
g144
sg15
I0
sg16
S'[Coursera - before 26 Nov] - Feature Preprocessing and Generation + Final Project'
p210
sg18
I-1
sg19
(lp211
sg39
I0
sg40
I0
sg41
(lp212
g133
asg13
S'the course looks amazing, really high quality. And is super hard-core! Do that while keep reading kernels on two-sigma and try to contact other ppl in SH on kaggle'
p213
sbsg1
(g2
g3
Ntp214
Rp215
(dp216
g7
L301635273123303876851813579135778075854L
sbg1
(g8
g3
Ntp217
Rp218
(dp219
g12
I0
sg43
g215
sg15
I0
sg16
S'SOLVE AND UPSOLVE CODEFORCES'
p220
sg18
I-1
sg19
(lp221
sg39
I0
sg40
I0
sg41
(lp222
g1
(g2
g3
Ntp223
Rp224
(dp225
g7
L290254751759413073619128693722350621788L
sbasg13
S'keep in mind when competition are coming and solve and UPSOLVE them'
p226
sbsg1
(g2
g3
Ntp227
Rp228
(dp229
g7
L99815207923002819335693235810832329365L
sbg1
(g8
g3
Ntp230
Rp231
(dp232
g12
I0
sg13
S'deadline mid december!'
p233
sg15
I1
sg16
S'[SUNDAY] - UNDERSTAND AND REGISTER ON UTORONTO WEBSITE'
p234
sg18
I10
sg19
(lp235
sg39
I0
sg40
I01
sg41
(lp236
g1
(g2
g3
Ntp237
Rp238
(dp239
g7
L63077571911512193023563383686047479662L
sbasg43
g228
sbsg1
(g2
g3
Ntp240
Rp241
(dp242
g7
L278202883418637668805594329961332026999L
sbg1
(g8
g3
Ntp243
Rp244
(dp245
g12
I0
sg13
S'obtain TOEFL examination'
p246
sg15
I0
sg16
S'TOEFL CERTIFICATE'
p247
sg19
(lp248
g1
(g2
g3
Ntp249
Rp250
(dp251
g7
L107066603430720260696720120439274190289L
sbasg39
I0
sg40
I01
sg41
(lp252
g55
asg43
g241
sbsg1
(g2
g3
Ntp253
Rp254
(dp255
g7
L271858506301703546856928236976679378944L
sbg1
(g8
g3
Ntp256
Rp257
(dp258
g12
I0
sg13
S'register for the exam and pay fee online'
p259
sg15
I0
sg16
S'REGISTER FOR EXAM AND PAY FEE'
p260
sg19
(lp261
sg39
I0
sg40
I01
sg41
(lp262
g250
asg43
g254
sbsg1
(g2
g3
Ntp263
Rp264
(dp265
g7
L286985255535873792913504525649578616188L
sbg1
(g8
g3
Ntp266
Rp267
(dp268
g12
I0
sg13
S'check a mock test and do at least one'
p269
sg15
I0
sg16
S'PREPARE TOEFL EXAM'
p270
sg18
I-1
sg19
(lp271
sg39
I0
sg40
I01
sg41
(lp272
g250
asg43
g264
sbsg67
g1
(g8
g3
Ntp273
Rp274
(dp275
g12
I0
sg13
S'be prepared for the exam to be taken in milano'
p276
sg15
I0
sg16
S'TAKE EXAM OF DYNAMIC SYSTEMS'
p277
sg18
I-1
sg19
(lp278
g1
(g2
g3
Ntp279
Rp280
(dp281
g7
L320402212635785279255127736306900733785L
sbag1
(g2
g3
Ntp282
Rp283
(dp284
g7
L329877359422265994478058073659784819622L
sbasg39
I0
sg40
I0
sg41
(lp285
g58
asg43
g67
sbsg169
g1
(g8
g3
Ntp286
Rp287
(dp288
g12
I0
sg13
S'finish the recommended preparation on leetcode for google interviews'
p289
sg15
I0
sg16
S'FINISH LEETCODE PREPARATION'
p290
sg19
(lp291
g1
(g2
g3
Ntp292
Rp293
(dp294
g7
L179705488350909481928182814130368170474L
sbag159
asg39
I0
sg40
I0
sg41
(lp295
g224
asg43
g169
sbsg1
(g2
g3
Ntp296
Rp297
(dp298
g7
L138110639811249909043334808185016487048L
sbg1
(g8
g3
Ntp299
Rp300
(dp301
g12
I0
sg13
S'attend and pass online coding interview'
p302
sg15
I0
sg16
S'PASS ONLINE GOOGLE INTERVIEW'
p303
sg19
(lp304
g224
asg39
I0
sg40
I0
sg41
(lp305
g96
asg43
g297
sbsg293
g1
(g8
g3
Ntp306
Rp307
(dp308
g12
I0
sg43
g293
sg15
I0
sg16
S'MAKE MOCK INTERVIEWS'
p309
sg19
(lp310
g1
(g2
g3
Ntp311
Rp312
(dp313
g7
L47966011402137119435479695724417639549L
sbasg39
I0
sg40
I0
sg41
(lp314
g169
asg13
S'-'
p315
sbsg1
(g2
g3
Ntp316
Rp317
(dp318
g7
L133836304371382100816373415253890876933L
sbg1
(g8
g3
Ntp319
Rp320
(dp321
g12
I0
sg43
g317
sg15
I0
sg16
S'GET SOLID MACHINE LEARNING EXPERIENCE/UNDERSTANDING'
p322
sg18
I-1
sg19
(lp323
g22
ag148
asg39
I1
sg40
I0
sg41
(lp324
g182
asg13
S'-'
p325
sbsg37
g1
(g8
g3
Ntp326
Rp327
(dp328
g12
I0
sg43
g37
sg15
I0
sg16
S'GO TO SINGAPORE'
p329
sg18
I-1
sg19
(lp330
sg39
I1
sg40
I0
sg41
(lp331
g5
ag198
asg13
S'-'
p332
sbsg1
(g2
g3
Ntp333
Rp334
(dp335
g7
L5967053936653833902398395857139666108L
sbg1
(g8
g3
Ntp336
Rp337
(dp338
g12
I0
sg13
S'what to buy on taobao, and so on..'
p339
sg15
I0
sg16
S'ANALYSE HOW TO IMPROVE LIFE SITUATION'
p340
sg18
I-1
sg19
(lp341
sg39
I1
sg40
I0
sg41
(lp342
g1
(g2
g3
Ntp343
Rp344
(dp345
g7
L140546056368510996122928218719333532998L
sbasg43
g334
sbsg224
g1
(g8
g3
Ntp346
Rp347
(dp348
g12
I0
sg43
g224
sg15
I0
sg16
S'BE PREAPRED FOR TECH-INTERVIEWS'
p349
sg19
(lp350
g1
(g2
g3
Ntp351
Rp352
(dp353
g7
L218754347477393592009745631803127637108L
sbag169
ag215
asg39
I0
sg40
I0
sg41
(lp354
g297
asg13
S'complete prepartion and ready to pass most interviews from top tech companies'
p355
sbsg86
g1
(g8
g3
Ntp356
Rp357
(dp358
g12
I0
sg13
S'-'
p359
sg15
I0
sg16
S'GET SOLID SYSTEM ARCHITECTURE/DEVELOPMENT SKILLS'
p360
sg18
I-1
sg19
(lp361
g25
asg39
I0
sg40
I0
sg41
(lp362
g182
asg43
g86
sbsg1
(g2
g3
Ntp363
Rp364
(dp365
g7
L24975105901237398572136056060329077158L
sbg1
(g8
g3
Ntp366
Rp367
(dp368
g12
I0
sg43
g364
sg15
I1
sg16
S'review motivational letter and find freelancer'
p369
sg18
I10
sg19
(lp370
sg39
I0
sg40
I01
sg41
(lp371
g55
asg13
S"read again and try to put more focus on 'why toronto', then find freelancer take 10 mins"
p372
sbsg1
(g2
g3
Ntp373
Rp374
(dp375
g7
L218454585389327078583462187007961025811L
sbg1
(g8
g3
Ntp376
Rp377
(dp378
g12
I0
sg43
g374
sg15
I1
sg16
S'ENGAGE IN CHALLENGING ANALYTICAL ENDEAVOUR'
p379
sg18
I4
sg19
(lp380
g182
ag148
ag312
ag1
(g2
g3
Ntp381
Rp382
(dp383
g7
L66236790644554531549930680656732804169L
sbag194
asg39
I1
sg40
I0
sg41
(lp384
sg13
S'this is a base-line reward, consists in anything from building a robot to solve a math problem. The reward is actually not gained at the end of the pendeavour but during the whole building process.'
p385
sbsg1
(g2
g3
Ntp386
Rp387
(dp388
g7
L178474714845234855660180108424156910208L
sbg1
(g8
g3
Ntp389
Rp390
(dp391
g12
I0
sg43
g387
sg15
I1
sg16
S'FIGURE OUT HEALTHY FOOD DELIVERY'
p392
sg18
I6
sg19
(lp393
sg39
I1
sg40
I0
sg41
(lp394
g344
asg13
S'try with sherpa, in general figure out diet/food in shanghai'
p395
sbsg148
g1
(g8
g3
Ntp396
Rp397
(dp398
g12
I0
sg43
g148
sg15
I0
sg16
S'COMPETE ON KAGGLE ON 2SIGMA STOCK-PREDICTION COMPETITION'
p399
sg18
I-1
sg19
(lp400
g133
ag1
(g2
g3
Ntp401
Rp402
(dp403
g7
L320129216555240031415401420348646501562L
sbag1
(g2
g3
Ntp404
Rp405
(dp406
g7
L229666551055324233508266079113816129429L
sbasg39
I0
sg40
I0
sg41
(lp407
g317
ag374
asg13
S'='
p408
sbsg115
g1
(g8
g3
Ntp409
Rp410
(dp411
g12
I0
sg13
S'it look pretty easy, I would give it 1-2 week before exam preparation so ideally in january'
p412
sg15
I0
sg16
S'DO EXERCIZES FROM BEEP'
p413
sg18
I-1
sg19
(lp414
g283
asg39
I0
sg40
I0
sg41
(lp415
g70
asg43
g115
sbsg22
g1
(g8
g3
Ntp416
Rp417
(dp418
g12
I0
sg13
S'enrolled in master at UToronto for 2019/2020'
p419
sg15
I1
sg16
S'TORONTO ADMISSION'
p420
sg18
I9
sg19
(lp421
g55
asg39
I0
sg40
I0
sg41
(lp422
g5
ag83
ag317
asg43
g22
sbsg83
g1
(g8
g3
Ntp423
Rp424
(dp425
g12
I0
sg13
S'this is also a base-line reward, pretty strong. The new relationship can create differents kind of stimulus: intellectual, sexual, affectional. This reward has the same weight of exploring new environements.'
p426
sg15
I1
sg16
S'GET NEW STIMULATING SOCIAL RELATIONSHIPS'
p427
sg18
I5
sg19
(lp428
g25
ag22
ag382
ag1
(g2
g3
Ntp429
Rp430
(dp431
g7
L183364228041490630143314142958446634577L
sbag1
(g2
g3
Ntp432
Rp433
(dp434
g7
L276136636266965703506812482659423000750L
sbag198
ag1
(g2
g3
Ntp435
Rp436
(dp437
g7
L122279148924349431392451433423763310581L
sbasg39
I1
sg40
I0
sg41
(lp438
sg43
g83
sbsg312
g1
(g8
g3
Ntp439
Rp440
(dp441
g12
I0
sg13
S'0'
p442
sg15
I0
sg16
S'MAKE TWO PROBLEMS A DAY UNTIL FINISHED ALL GOOGLE-PREPARATION PROGRAM'
p443
sg19
(lp444
sg39
I0
sg40
I01
sg41
(lp445
g293
ag374
asg43
g312
sbsg402
g1
(g8
g3
Ntp446
Rp447
(dp448
g12
I0
sg13
S'follow course on coursera and 2sigma competition'
p449
sg15
I0
sg16
S'EVERY DAY INVEST ONE HOUR IN DATA SCIENCE COMPETITIONS'
p450
sg18
I-1
sg19
(lp451
sg39
I0
sg40
I0
sg41
(lp452
g148
asg43
g402
sbsg96
g1
(g8
g3
Ntp453
Rp454
(dp455
g12
I0
sg43
g96
sg15
I0
sg16
S'PASS GOOGLE ON-SITE'
p456
sg19
(lp457
g297
asg39
I0
sg40
I0
sg41
(lp458
g79
asg13
S'go to zurich and pass on site'
p459
sbsg430
g1
(g8
g3
Ntp460
Rp461
(dp462
g12
I0
sg13
S'meet the guy since he is top 10 world wide in codeforces'
p463
sg15
I0
sg16
S'MEET FIZZY DAVID IN NANJING'
p464
sg18
I-1
sg19
(lp465
g31
asg39
I1
sg40
I0
sg41
(lp466
g83
asg43
g430
sbsg280
g1
(g8
g3
Ntp467
Rp468
(dp469
g12
I0
sg43
g280
sg15
I0
sg16
S'MAKE STUDY PLAN FOR DYNAMIC SYSTEM EXAM'
p470
sg18
I-1
sg19
(lp471
sg39
I0
sg40
I01
sg41
(lp472
g67
asg13
S'check dates, resources and arrange preparation in a timetable'
p473
sbsg31
g1
(g8
g3
Ntp474
Rp475
(dp476
g12
I0
sg43
g31
sg15
I0
sg16
S'GO TO NANJING'
p477
sg18
I-1
sg19
(lp478
sg39
I1
sg40
I0
sg41
(lp479
g5
ag430
asg13
S'-'
p480
sbsg433
g1
(g8
g3
Ntp481
Rp482
(dp483
g12
I0
sg43
g433
sg15
I0
sg16
S'MEET AND FIND HANGZHOU DIANZI DAXUE GUYS'
p484
sg18
I-1
sg19
(lp485
g34
asg39
I1
sg40
I0
sg41
(lp486
g83
asg13
S'the main guy was strong and he said he was gonna work at Google China, interestin perspective on high level tech world in China'
p487
sbsg250
g1
(g8
g3
Ntp488
Rp489
(dp490
g12
I0
sg43
g250
sg15
I0
sg16
S'TAKE TOEFL EXAM'
p491
sg19
(lp492
g254
ag264
ag1
(g2
g3
Ntp493
Rp494
(dp495
g7
L17252208069010375379248827230645534454L
sbasg39
I0
sg40
I01
sg41
(lp496
g241
asg13
S'take the exam in shanghai'
p497
sbsg1
(g2
g3
Ntp498
Rp499
(dp500
g7
L202473669527500634584659786894089462066L
sbg1
(g8
g3
Ntp501
Rp502
(dp503
g12
I0
sg13
S'almost there, should be only one step. Other todos might be 1) explore chatbot, if there is some easy solution out of the box online 2) when you are high energy put constraints!'
p504
sg15
I0
sg16
S'[WHEN YOU HAVE MACBOOK PRO] GET ACCESS TOKEN, AND TEST APIs'
p505
sg18
I-1
sg19
(lp506
sg39
I1
sg40
I0
sg41
(lp507
g382
asg43
g499
sbsg283
g1
(g8
g3
Ntp508
Rp509
(dp510
g12
I0
sg13
S'mainly coming from dispense, try to arrange the study for when there is no computer also (print the book?) good luck! it look super interesting to apply this complex modelling to life and ultimately to the TODAG!!'
p511
sg15
I0
sg16
S'EVERY THREE DAY INVEST [1hour,2hours] IN TEORIA DEI SISTEMI'
p512
sg18
I-1
sg19
(lp513
sg39
I0
sg40
I00
sg41
(lp514
g67
ag115
asg43
g283
sbsg405
g1
(g8
g3
Ntp515
Rp516
(dp517
g12
I0
sg13
S'-'
p518
sg15
I0
sg16
S'look for top 100 chinese people in two sigma competition'
p519
sg18
I-1
sg19
(lp520
sg39
I0
sg40
I0
sg41
(lp521
g148
asg43
g405
sbsg238
g1
(g8
g3
Ntp522
Rp523
(dp524
g12
I0
sg43
g238
sg15
I0
sg16
S'START APPLICATION'
p525
sg19
(lp526
g228
asg39
I0
sg40
I01
sg41
(lp527
g55
asg13
S'register on the website, and write draft for application'
p528
sbsg1
(g2
g3
Ntp529
Rp530
(dp531
g7
L133394133469814233230220167753748288054L
sbg1
(g8
g3
Ntp532
Rp533
(dp534
g12
I0
sg13
S'"becoming a cyborg" serie, this long term project of the personal assistant is worth writing a blog on. Start documenting what you did with small guides like '
p535
sg15
I0
sg16
S'WRITE BLOG ON MEDIUM'
p536
sg18
I-1
sg19
(lp537
sg39
I0
sg40
I0
sg41
(lp538
g194
asg43
g530
sbsg1
(g2
g3
Ntp539
Rp540
(dp541
g7
L9932486939525047939484580396931541429L
sbg1
(g8
g3
Ntp542
Rp543
(dp544
g12
I0
sg43
g540
sg15
I1
sg16
S'MUSIC'
p545
sg18
I1
sg19
(lp546
sg39
I1
sg40
I0
sg41
(lp547
sg13
S'base-line reward, playing has higher reward than listening. Weight is the lowest of all the other base-line rewards.'
p548
sbsg194
g1
(g8
g3
Ntp549
Rp550
(dp551
g12
I0
sg43
g194
sg15
I2
sg16
S'HAVE A PERSONAL ASSISTANT'
p552
sg18
I2
sg19
(lp553
g185
ag530
asg39
I0
sg40
I0
sg41
(lp554
g374
ag344
asg13
S'this project is the larger vision of the TODAG, comes from the idea of RAY-DALIO and the differentiation between DESIGNER and EXECUTOR'
p555
sbsg436
g1
(g8
g3
Ntp556
Rp557
(dp558
g12
I0
sg13
S'add them on wechat, contact them and arrange meeting'
p559
sg15
I0
sg16
S'MEET ALGO_TRADING PEOPLE IN SHANGHAI'
p560
sg18
I-1
sg19
(lp561
sg39
I1
sg40
I01
sg41
(lp562
g83
ag182
asg43
g436
sbsg130
g1
(g8
g3
Ntp563
Rp564
(dp565
g12
I0
sg43
g130
sg15
I0
sg16
S'BRING MAC TO FIX'
p566
sg18
I-1
sg19
(lp567
g28
asg39
I0
sg40
I0
sg41
(lp568
g344
asg13
S'-'
p569
sbsg382
g1
(g8
g3
Ntp570
Rp571
(dp572
g12
I0
sg43
g382
sg15
I1
sg16
S'BUILD AN AUTOMATION FOR TANTAN'
p573
sg18
I2
sg19
(lp574
g499
asg39
I1
sg40
I0
sg41
(lp575
g83
ag374
asg13
S'is both an interesting project, and I need to leverage both my appearance and also the fact that I can combine it with travelling. PRO -> change location'
p576
sbsg494
g1
(g8
g3
Ntp577
Rp578
(dp579
g12
I0
sg43
g494
sg15
I0
sg16
S'[SUNDAY] TAKE ONE HOUR TO DO MOCK UP TEST OF TOEFL AND CHECK SCORE (HIGHER THEN 92)'
p580
sg18
I-1
sg19
(lp581
sg39
I0
sg40
I01
sg41
(lp582
g250
asg13
S'should be easy, you know is not that boring'
p583
sbsg1
(g2
g3
Ntp584
Rp585
(dp586
g7
L318384474826415402591528793758726414901L
sbg1
(g8
g3
Ntp587
Rp588
(dp589
g12
I0
sg13
S'becoming the main international community leader for vnpy'
p590
sg15
I1
sg16
S'INTERNATIONAL COMMUNITY LEADER FOR VNPY'
p591
sg18
I5
sg19
(lp592
g1
(g2
g3
Ntp593
Rp594
(dp595
g7
L95510837084590829940088316773770191024L
sbasg39
I1
sg40
I0
sg41
(lp596
g182
asg43
g585
sbsg141
g1
(g8
g3
Ntp597
Rp598
(dp599
g12
I0
sg43
g141
sg15
I0
sg16
S'Enroll in coursera "kaggle competition" course, make timing to compete for TwoSigma'
p600
sg18
I-1
sg19
(lp601
sg39
I1
sg40
I01
sg41
(lp602
g133
asg13
S"the course looks more organized than just trying to the competition by myself, specifically because I don't really know what to do. The course is 4 weeks so since there are 8 weeks left for the competition looks ok, but need to do better planning."
p603
sbsg182
g1
(g8
g3
Ntp604
Rp605
(dp606
g12
I0
sg43
g182
sg15
I1
sg16
S'BUILD AN AI TRADING SYSTEM'
p607
sg18
I5
sg19
(lp608
g317
ag86
ag436
ag172
ag585
asg39
I1
sg40
I0
sg41
(lp609
g374
ag344
asg13
S'build a deep-learning based trading system that trade automatically with real money on the market'
p610
sbsg344
g1
(g8
g3
Ntp611
Rp612
(dp613
g12
I0
sg43
g344
sg15
I1
sg16
S'IMRPOVE MY DAILY LIFE SITUATION'
p614
sg18
I2
sg19
(lp615
g182
ag130
ag387
ag334
ag194
asg39
I1
sg40
I0
sg41
(lp616
sg13
S'incorporating new habits, new objects or new comforts in my daily life situation. This goes from buying stuff, to having a more comfortable life style, and so on. The relative rewards is pretty low since the base-line improvment is pretty small.'
p617
sbsg34
g1
(g8
g3
Ntp618
Rp619
(dp620
g12
I0
sg13
S'-'
p621
sg15
I0
sg16
S'GO TO HANGZHOU'
p622
sg18
I-1
sg19
(lp623
sg39
I1
sg40
I0
sg41
(lp624
g5
ag433
asg43
g34
sbsg594
g1
(g8
g3
Ntp625
Rp626
(dp627
g12
I0
sg43
g594
sg15
I0
sg16
S'[DEADLINE 12 Dec] START MEDIUM BLOG ON HOW TO RUN VNPY'
p628
sg18
I-1
sg19
(lp629
sg39
I1
sg40
I0
sg41
(lp630
g585
asg13
S'beside medium blog, also start the stackoverflow questions. Deadline 12 december'
p631
sbsg55
g1
(g8
g3
Ntp632
Rp633
(dp634
g12
I0
sg43
g55
sg15
I0
sg16
S'COMPLETE APPLICATION'
p635
sg19
(lp636
g238
ag241
ag58
ag45
ag364
asg39
I0
sg40
I0
sg41
(lp637
g22
asg13
S'completed and submitted full application to UToronto'
p638
sbs.